; Function Attrs: mustprogress uwtable
define internal void @_ZN13new_obj_trailIN12_GLOBAL__N_19code_treeEE4undoEv(ptr nocapture noundef nonnull readonly align 8 dereferenceable(16) %this) unnamed_addr #3 align 2 personality ptr @__gxx_personality_v0 {
entry:
  %m_obj = getelementptr inbounds i8, ptr %this, i64 8
  %0 = load ptr, ptr %m_obj, align 8
  %cmp.i = icmp eq ptr %0, null
  br i1 %cmp.i, label %_Z7deallocIN12_GLOBAL__N_19code_treeEEvPT_.exit, label %if.end.i

if.end.i:                                         ; preds = %entry
  %1 = getelementptr i8, ptr %0, i64 40
  %ptr.val.i = load ptr, ptr %1, align 8
  %tobool.not.i.i.i.i.i = icmp eq ptr %ptr.val.i, null
  br i1 %tobool.not.i.i.i.i.i, label %_ZN12_GLOBAL__N_19code_treeD2Ev.exit.i, label %if.then.i.i.i.i.i

if.then.i.i.i.i.i:                                ; preds = %if.end.i
  %add.ptr.i.i.i.i.i.i = getelementptr inbounds i8, ptr %ptr.val.i, i64 -8
  invoke void @_ZN6memory10deallocateEPv(ptr noundef nonnull %add.ptr.i.i.i.i.i.i)
          to label %_ZN12_GLOBAL__N_19code_treeD2Ev.exit.i unwind label %terminate.lpad.i.i.i.i

terminate.lpad.i.i.i.i:                           ; preds = %if.then.i.i.i.i.i
  %2 = landingpad { ptr, i32 }
          catch ptr null
  %3 = extractvalue { ptr, i32 } %2, 0
  tail call void @__clang_call_terminate(ptr %3) #22
  unreachable

_ZN12_GLOBAL__N_19code_treeD2Ev.exit.i:           ; preds = %if.then.i.i.i.i.i, %if.end.i
  tail call void @_ZN6memory10deallocateEPv(ptr noundef nonnull %0)
  br label %_Z7deallocIN12_GLOBAL__N_19code_treeEEvPT_.exit

_Z7deallocIN12_GLOBAL__N_19code_treeEEvPT_.exit:  ; preds = %entry, %_ZN12_GLOBAL__N_19code_treeD2Ev.exit.i
  ret void
}